target datalayout = "e-m:e-p270:32:32-p271:32:32-p272:64:64-i64:64-i128:128-f80:128-n8:16:32:64-S128"
target triple = "x86_64-pc-linux-gnu"

@libctx = internal global ptr null, align 8
@.str.14 = private unnamed_addr constant [30 x i8] c"../openssl/test/quicapitest.c\00", align 1
@cert = internal global ptr null, align 8
@privkey = internal global ptr null, align 8
@.str.62 = private unnamed_addr constant [5 x i8] c"cctx\00", align 1
@.str.67 = private unnamed_addr constant [49 x i8] c"qtest_create_quic_connection(qtserv, clientquic)\00", align 1
@.str.70 = private unnamed_addr constant [2 x i8] c"0\00", align 1
@.str.132 = private unnamed_addr constant [57 x i8] c"SSL_CTX_set_ciphersuites(cctx, \22TLS_AES_128_GCM_SHA256\22)\00", align 1
@.str.133 = private unnamed_addr constant [23 x i8] c"TLS_AES_128_GCM_SHA256\00", align 1
@.str.134 = private unnamed_addr constant [117 x i8] c"qtest_create_quic_objects(libctx, cctx, NULL, cert, privkey, QTEST_FLAG_FAKE_TIME, &qtserv, &clientquic, NULL, NULL)\00", align 1
@.str.242 = private unnamed_addr constant [41 x i8] c"SSL_set_alpn_protos(clientquic, NULL, 0)\00", align 1
@.str.243 = private unnamed_addr constant [4 x i8] c"ret\00", align 1
@.str.244 = private unnamed_addr constant [31 x i8] c"SSL_get_error(clientquic, ret)\00", align 1
@.str.245 = private unnamed_addr constant [14 x i8] c"SSL_ERROR_SSL\00", align 1
@.str.246 = private unnamed_addr constant [20 x i8] c"SSL_ERROR_WANT_READ\00", align 1

; Function Attrs: nounwind uwtable
define internal i32 @test_alpn(i32 noundef %0) #0 {
  %2 = alloca i32, align 4
  %3 = alloca ptr, align 8
  %4 = alloca ptr, align 8
  %5 = alloca ptr, align 8
  %6 = alloca i32, align 4
  %7 = alloca i32, align 4
  store i32 %0, ptr %2, align 4, !tbaa !13
  call void @llvm.lifetime.start.p0(i64 8, ptr %3) #8
  %8 = load ptr, ptr @libctx, align 8, !tbaa !4
  %9 = call ptr @OSSL_QUIC_client_method()
  %10 = call ptr @SSL_CTX_new_ex(ptr noundef %8, ptr noundef null, ptr noundef %9)
  store ptr %10, ptr %3, align 8, !tbaa !15
  call void @llvm.lifetime.start.p0(i64 8, ptr %4) #8
  store ptr null, ptr %4, align 8, !tbaa !17
  call void @llvm.lifetime.start.p0(i64 8, ptr %5) #8
  store ptr null, ptr %5, align 8, !tbaa !19
  call void @llvm.lifetime.start.p0(i64 4, ptr %6) #8
  store i32 0, ptr %6, align 4, !tbaa !13
  call void @llvm.lifetime.start.p0(i64 4, ptr %7) #8
  %11 = load ptr, ptr %3, align 8, !tbaa !15
  %12 = call i32 @SSL_CTX_set_ciphersuites(ptr noundef %11, ptr noundef @.str.133)
  %13 = icmp ne i32 %12, 0
  %14 = zext i1 %13 to i32
  %15 = call i32 @test_true(ptr noundef @.str.14, i32 noundef 1469, ptr noundef @.str.132, i32 noundef %14)
  %16 = icmp ne i32 %15, 0
  br i1 %16, label %18, label %17

17:                                               ; preds = %1
  br label %80

18:                                               ; preds = %1
  %19 = load ptr, ptr %3, align 8, !tbaa !15
  %20 = call i32 @test_ptr(ptr noundef @.str.14, i32 noundef 1472, ptr noundef @.str.62, ptr noundef %19)
  %21 = icmp ne i32 %20, 0
  br i1 %21, label %22, label %32

22:                                               ; preds = %18
  %23 = load ptr, ptr @libctx, align 8, !tbaa !4
  %24 = load ptr, ptr %3, align 8, !tbaa !15
  %25 = load ptr, ptr @cert, align 8, !tbaa !11
  %26 = load ptr, ptr @privkey, align 8, !tbaa !11
  %27 = call i32 @qtest_create_quic_objects(ptr noundef %23, ptr noundef %24, ptr noundef null, ptr noundef %25, ptr noundef %26, i32 noundef 2, ptr noundef %5, ptr noundef %4, ptr noundef null, ptr noundef null)
  %28 = icmp ne i32 %27, 0
  %29 = zext i1 %28 to i32
  %30 = call i32 @test_true(ptr noundef @.str.14, i32 noundef 1477, ptr noundef @.str.134, i32 noundef %29)
  %31 = icmp ne i32 %30, 0
  br i1 %31, label %33, label %32

32:                                               ; preds = %22, %18
  br label %80

33:                                               ; preds = %22
  %34 = load i32, ptr %2, align 4, !tbaa !13
  %35 = icmp eq i32 %34, 0
  br i1 %35, label %36, label %45

36:                                               ; preds = %33
  %37 = load ptr, ptr %4, align 8, !tbaa !17
  %38 = call i32 @SSL_set_alpn_protos(ptr noundef %37, ptr noundef null, i32 noundef 0)
  %39 = icmp ne i32 %38, 0
  %40 = zext i1 %39 to i32
  %41 = call i32 @test_false(ptr noundef @.str.14, i32 noundef 1485, ptr noundef @.str.242, i32 noundef %40)
  %42 = icmp ne i32 %41, 0
  br i1 %42, label %44, label %43

43:                                               ; preds = %36
  br label %80

44:                                               ; preds = %36
  br label %45

45:                                               ; preds = %44, %33
  %46 = load ptr, ptr %4, align 8, !tbaa !17
  %47 = call i32 @SSL_connect(ptr noundef %46)
  store i32 %47, ptr %7, align 4, !tbaa !13
  %48 = load i32, ptr %7, align 4, !tbaa !13
  %49 = call i32 @test_int_le(ptr noundef @.str.14, i32 noundef 1490, ptr noundef @.str.243, ptr noundef @.str.70, i32 noundef %48, i32 noundef 0)
  %50 = icmp ne i32 %49, 0
  br i1 %50, label %52, label %51

51:                                               ; preds = %45
  br label %80

52:                                               ; preds = %45
  %53 = load i32, ptr %2, align 4, !tbaa !13
  %54 = icmp eq i32 %53, 0
  br i1 %54, label %55, label %63

55:                                               ; preds = %52
  %56 = load ptr, ptr %4, align 8, !tbaa !17
  %57 = load i32, ptr %7, align 4, !tbaa !13
  %58 = call i32 @SSL_get_error(ptr noundef %56, i32 noundef %57)
  %59 = call i32 @test_int_eq(ptr noundef @.str.14, i32 noundef 1494, ptr noundef @.str.244, ptr noundef @.str.245, i32 noundef %58, i32 noundef 1)
  %60 = icmp ne i32 %59, 0
  br i1 %60, label %62, label %61

61:                                               ; preds = %55
  br label %80

62:                                               ; preds = %55
  br label %79

63:                                               ; preds = %52
  %64 = load ptr, ptr %4, align 8, !tbaa !17
  %65 = load i32, ptr %7, align 4, !tbaa !13
  %66 = call i32 @SSL_get_error(ptr noundef %64, i32 noundef %65)
  %67 = call i32 @test_int_eq(ptr noundef @.str.14, i32 noundef 1498, ptr noundef @.str.244, ptr noundef @.str.246, i32 noundef %66, i32 noundef 2)
  %68 = icmp ne i32 %67, 0
  br i1 %68, label %69, label %77

69:                                               ; preds = %63
  %70 = load ptr, ptr %5, align 8, !tbaa !19
  %71 = load ptr, ptr %4, align 8, !tbaa !17
  %72 = call i32 @qtest_create_quic_connection(ptr noundef %70, ptr noundef %71)
  %73 = icmp ne i32 %72, 0
  %74 = zext i1 %73 to i32
  %75 = call i32 @test_true(ptr noundef @.str.14, i32 noundef 1499, ptr noundef @.str.67, i32 noundef %74)
  %76 = icmp ne i32 %75, 0
  br i1 %76, label %78, label %77

77:                                               ; preds = %69, %63
  br label %80

78:                                               ; preds = %69
  br label %79

79:                                               ; preds = %78, %62
  store i32 1, ptr %6, align 4, !tbaa !13
  br label %80

80:                                               ; preds = %79, %77, %61, %51, %43, %32, %17
  %81 = load ptr, ptr %5, align 8, !tbaa !19
  call void @ossl_quic_tserver_free(ptr noundef %81)
  %82 = load ptr, ptr %4, align 8, !tbaa !17
  call void @SSL_free(ptr noundef %82)
  %83 = load ptr, ptr %3, align 8, !tbaa !15
  call void @SSL_CTX_free(ptr noundef %83)
  %84 = load i32, ptr %6, align 4, !tbaa !13
  call void @llvm.lifetime.end.p0(i64 4, ptr %7) #8
  call void @llvm.lifetime.end.p0(i64 4, ptr %6) #8
  call void @llvm.lifetime.end.p0(i64 8, ptr %5) #8
  call void @llvm.lifetime.end.p0(i64 8, ptr %4) #8
  call void @llvm.lifetime.end.p0(i64 8, ptr %3) #8
  ret i32 %84
}