; Function Attrs: nounwind uwtable
define internal range(i32 0, 2) i32 @test_alpn(i32 noundef %0) #1 {
  %2 = alloca ptr, align 8
  %3 = alloca ptr, align 8
  %4 = load ptr, ptr @libctx, align 8, !tbaa !4
  %5 = tail call ptr @OSSL_QUIC_client_method() #10
  %6 = tail call ptr @SSL_CTX_new_ex(ptr noundef %4, ptr noundef null, ptr noundef %5) #10
  call void @llvm.lifetime.start.p0(i64 8, ptr nonnull %2) #10
  store ptr null, ptr %2, align 8, !tbaa !13
  call void @llvm.lifetime.start.p0(i64 8, ptr nonnull %3) #10
  store ptr null, ptr %3, align 8, !tbaa !15
  %7 = tail call i32 @SSL_CTX_set_ciphersuites(ptr noundef %6, ptr noundef nonnull @.str.133) #10
  %8 = icmp ne i32 %7, 0
  %9 = zext i1 %8 to i32
  %10 = tail call i32 @test_true(ptr noundef nonnull @.str.14, i32 noundef 1469, ptr noundef nonnull @.str.132, i32 noundef %9) #10
  %.not = icmp eq i32 %10, 0
  br i1 %.not, label %48, label %11

11:                                               ; preds = %1
  %12 = tail call i32 @test_ptr(ptr noundef nonnull @.str.14, i32 noundef 1472, ptr noundef nonnull @.str.62, ptr noundef %6) #10
  %.not9 = icmp eq i32 %12, 0
  br i1 %.not9, label %48, label %13

13:                                               ; preds = %11
  %14 = load ptr, ptr @libctx, align 8, !tbaa !4
  %15 = load ptr, ptr @cert, align 8, !tbaa !11
  %16 = load ptr, ptr @privkey, align 8, !tbaa !11
  %17 = call i32 @qtest_create_quic_objects(ptr noundef %14, ptr noundef %6, ptr noundef null, ptr noundef %15, ptr noundef %16, i32 noundef 2, ptr noundef nonnull %3, ptr noundef nonnull %2, ptr noundef null, ptr noundef null) #10
  %18 = icmp ne i32 %17, 0
  %19 = zext i1 %18 to i32
  %20 = call i32 @test_true(ptr noundef nonnull @.str.14, i32 noundef 1477, ptr noundef nonnull @.str.134, i32 noundef %19) #10
  %.not10 = icmp eq i32 %20, 0
  br i1 %.not10, label %48, label %21

21:                                               ; preds = %13
  %22 = icmp eq i32 %0, 0
  br i1 %22, label %23, label %29

23:                                               ; preds = %21
  %24 = load ptr, ptr %2, align 8, !tbaa !13
  %25 = call i32 @SSL_set_alpn_protos(ptr noundef %24, ptr noundef null, i32 noundef 0) #10
  %26 = icmp ne i32 %25, 0
  %27 = zext i1 %26 to i32
  %28 = call i32 @test_false(ptr noundef nonnull @.str.14, i32 noundef 1485, ptr noundef nonnull @.str.242, i32 noundef %27) #10
  %.not11 = icmp eq i32 %28, 0
  br i1 %.not11, label %48, label %29

29:                                               ; preds = %23, %21
  %30 = load ptr, ptr %2, align 8, !tbaa !13
  %31 = call i32 @SSL_connect(ptr noundef %30) #10
  %32 = call i32 @test_int_le(ptr noundef nonnull @.str.14, i32 noundef 1490, ptr noundef nonnull @.str.243, ptr noundef nonnull @.str.70, i32 noundef %31, i32 noundef 0) #10
  %.not12 = icmp eq i32 %32, 0
  br i1 %.not12, label %48, label %33

33:                                               ; preds = %29
  %34 = load ptr, ptr %2, align 8, !tbaa !13
  %35 = call i32 @SSL_get_error(ptr noundef %34, i32 noundef %31) #10
  br i1 %22, label %36, label %38

36:                                               ; preds = %33
  %37 = call i32 @test_int_eq(ptr noundef nonnull @.str.14, i32 noundef 1494, ptr noundef nonnull @.str.244, ptr noundef nonnull @.str.245, i32 noundef %35, i32 noundef 1) #10
  %.not15 = icmp eq i32 %37, 0
  br i1 %.not15, label %48, label %47

38:                                               ; preds = %33
  %39 = call i32 @test_int_eq(ptr noundef nonnull @.str.14, i32 noundef 1498, ptr noundef nonnull @.str.244, ptr noundef nonnull @.str.246, i32 noundef %35, i32 noundef 2) #10
  %.not13 = icmp eq i32 %39, 0
  br i1 %.not13, label %48, label %40

40:                                               ; preds = %38
  %41 = load ptr, ptr %3, align 8, !tbaa !15
  %42 = load ptr, ptr %2, align 8, !tbaa !13
  %43 = call i32 @qtest_create_quic_connection(ptr noundef %41, ptr noundef %42) #10
  %44 = icmp ne i32 %43, 0
  %45 = zext i1 %44 to i32
  %46 = call i32 @test_true(ptr noundef nonnull @.str.14, i32 noundef 1499, ptr noundef nonnull @.str.67, i32 noundef %45) #10
  %.not14 = icmp eq i32 %46, 0
  br i1 %.not14, label %48, label %47

47:                                               ; preds = %40, %36
  br label %48

48:                                               ; preds = %38, %40, %36, %29, %23, %11, %13, %1, %47
  %.0 = phi i32 [ 1, %47 ], [ 0, %36 ], [ 0, %40 ], [ 0, %38 ], [ 0, %29 ], [ 0, %23 ], [ 0, %13 ], [ 0, %11 ], [ 0, %1 ]
  %49 = load ptr, ptr %3, align 8, !tbaa !15
  call void @ossl_quic_tserver_free(ptr noundef %49) #10
  %50 = load ptr, ptr %2, align 8, !tbaa !13
  call void @SSL_free(ptr noundef %50) #10
  call void @SSL_CTX_free(ptr noundef %6) #10
  call void @llvm.lifetime.end.p0(i64 8, ptr nonnull %3) #10
  call void @llvm.lifetime.end.p0(i64 8, ptr nonnull %2) #10
  ret i32 %.0
}